; ModuleID = '22/116.c'
source_filename = "22/116.c"
target datalayout = "e-m:e-p270:32:32-p271:32:32-p272:64:64-i64:64-f80:128-n8:16:32:64-S128"
target triple = "x86_64-pc-linux-gnu"

@.str = private unnamed_addr constant [3 x i8] c"%d\00", align 1
@.str.1 = private unnamed_addr constant [3 x i8] c"No\00", align 1

; Function Attrs: noinline nounwind uwtable
define dso_local void @main() #0 {
  %1 = alloca i32, align 4
  %2 = alloca i32, align 4
  %3 = alloca [300 x i32], align 16
  %4 = alloca i32, align 4
  %5 = alloca i32, align 4
  %6 = alloca i32, align 4
  %7 = alloca i8, align 1
  store i32 0, i32* %4, align 4
  store i32 0, i32* %5, align 4
  store i32 0, i32* %6, align 4
  store i32 0, i32* %1, align 4
  br label %8

8:                                                ; preds = %22, %0
  %9 = load i32, i32* %1, align 4
  %10 = sext i32 %9 to i64
  %11 = getelementptr inbounds [300 x i32], [300 x i32]* %3, i64 0, i64 %10
  %12 = call i32 (i8*, ...) @__isoc99_scanf(i8* getelementptr inbounds ([3 x i8], [3 x i8]* @.str, i64 0, i64 0), i32* %11)
  %13 = call i32 @getchar()
  %14 = trunc i32 %13 to i8
  store i8 %14, i8* %7, align 1
  %15 = load i8, i8* %7, align 1
  %16 = sext i8 %15 to i32
  %17 = icmp ne i32 %16, 44
  br i1 %17, label %18, label %21

18:                                               ; preds = %8
  %19 = load i32, i32* %1, align 4
  %20 = add nsw i32 %19, 1
  store i32 %20, i32* %1, align 4
  br label %25

21:                                               ; preds = %8
  br label %22

22:                                               ; preds = %21
  %23 = load i32, i32* %1, align 4
  %24 = add nsw i32 %23, 1
  store i32 %24, i32* %1, align 4
  br label %8

25:                                               ; preds = %18
  store i32 0, i32* %2, align 4
  br label %26

26:                                               ; preds = %44, %25
  %27 = load i32, i32* %2, align 4
  %28 = load i32, i32* %1, align 4
  %29 = sub nsw i32 %28, 1
  %30 = icmp sle i32 %27, %29
  br i1 %30, label %31, label %47

31:                                               ; preds = %26
  %32 = load i32, i32* %2, align 4
  %33 = sext i32 %32 to i64
  %34 = getelementptr inbounds [300 x i32], [300 x i32]* %3, i64 0, i64 %33
  %35 = load i32, i32* %34, align 4
  %36 = load i32, i32* %4, align 4
  %37 = icmp sgt i32 %35, %36
  br i1 %37, label %38, label %43

38:                                               ; preds = %31
  %39 = load i32, i32* %2, align 4
  %40 = sext i32 %39 to i64
  %41 = getelementptr inbounds [300 x i32], [300 x i32]* %3, i64 0, i64 %40
  %42 = load i32, i32* %41, align 4
  store i32 %42, i32* %4, align 4
  br label %43

43:                                               ; preds = %38, %31
  br label %44

44:                                               ; preds = %43
  %45 = load i32, i32* %2, align 4
  %46 = add nsw i32 %45, 1
  store i32 %46, i32* %2, align 4
  br label %26

47:                                               ; preds = %26
  store i32 0, i32* %2, align 4
  br label %48

48:                                               ; preds = %75, %47
  %49 = load i32, i32* %2, align 4
  %50 = load i32, i32* %1, align 4
  %51 = sub nsw i32 %50, 1
  %52 = icmp sle i32 %49, %51
  br i1 %52, label %53, label %78

53:                                               ; preds = %48
  %54 = load i32, i32* %2, align 4
  %55 = sext i32 %54 to i64
  %56 = getelementptr inbounds [300 x i32], [300 x i32]* %3, i64 0, i64 %55
  %57 = load i32, i32* %56, align 4
  %58 = load i32, i32* %5, align 4
  %59 = icmp sgt i32 %57, %58
  br i1 %59, label %60, label %74

60:                                               ; preds = %53
  %61 = load i32, i32* %2, align 4
  %62 = sext i32 %61 to i64
  %63 = getelementptr inbounds [300 x i32], [300 x i32]* %3, i64 0, i64 %62
  %64 = load i32, i32* %63, align 4
  %65 = load i32, i32* %4, align 4
  %66 = icmp slt i32 %64, %65
  br i1 %66, label %67, label %74

67:                                               ; preds = %60
  %68 = load i32, i32* %6, align 4
  %69 = add nsw i32 %68, 1
  store i32 %69, i32* %6, align 4
  %70 = load i32, i32* %2, align 4
  %71 = sext i32 %70 to i64
  %72 = getelementptr inbounds [300 x i32], [300 x i32]* %3, i64 0, i64 %71
  %73 = load i32, i32* %72, align 4
  store i32 %73, i32* %5, align 4
  br label %74

74:                                               ; preds = %67, %60, %53
  br label %75

75:                                               ; preds = %74
  %76 = load i32, i32* %2, align 4
  %77 = add nsw i32 %76, 1
  store i32 %77, i32* %2, align 4
  br label %48

78:                                               ; preds = %48
  %79 = load i32, i32* %6, align 4
  %80 = icmp ne i32 %79, 0
  br i1 %80, label %81, label %84

81:                                               ; preds = %78
  %82 = load i32, i32* %5, align 4
  %83 = call i32 (i8*, ...) @printf(i8* getelementptr inbounds ([3 x i8], [3 x i8]* @.str, i64 0, i64 0), i32 %82)
  br label %86

84:                                               ; preds = %78
  %85 = call i32 (i8*, ...) @printf(i8* getelementptr inbounds ([3 x i8], [3 x i8]* @.str.1, i64 0, i64 0))
  br label %86

86:                                               ; preds = %84, %81
  ret void
}

declare dso_local i32 @__isoc99_scanf(i8*, ...) #1

declare dso_local i32 @getchar() #1

declare dso_local i32 @printf(i8*, ...) #1


!llvm.module.flags = !{!0}
!llvm.ident = !{!1}

!0 = !{i32 1, !"wchar_size", i32 4}
!1 = !{!"clang version 10.0.0-4ubuntu1 "}
